target datalayout = "e-m:e-p270:32:32-p271:32:32-p272:64:64-i64:64-i128:128-f80:128-n8:16:32:64-S128"
target triple = "x86_64-pc-linux-gnu"

@fetch_if_missing = external global i32, align 4
@.str.116 = private unnamed_addr constant [10 x i8] c"allow-any\00", align 1
@.str.144 = private unnamed_addr constant [6 x i8] c"error\00", align 1
@arg_missing_action = internal global i32 0, align 4
@fn_show_object = internal global ptr null, align 8
@.str.145 = private unnamed_addr constant [15 x i8] c"allow-promisor\00", align 1
@.str.146 = private unnamed_addr constant [29 x i8] c"invalid value for '%s': '%s'\00", align 1
@.str.147 = private unnamed_addr constant [10 x i8] c"--missing\00", align 1

; Function Attrs: nounwind uwtable
define internal i32 @option_parse_missing_action(ptr noundef %0, ptr noundef %1, i32 noundef %2) #0 {
  %4 = alloca i32, align 4
  %5 = alloca ptr, align 8
  %6 = alloca ptr, align 8
  %7 = alloca i32, align 4
  store ptr %0, ptr %5, align 8, !tbaa !127
  store ptr %1, ptr %6, align 8, !tbaa !24
  store i32 %2, ptr %7, align 4, !tbaa !27
  %8 = load ptr, ptr %6, align 8, !tbaa !24
  %9 = call i32 @strcmp(ptr noundef %8, ptr noundef @.str.144) #13
  %10 = icmp ne i32 %9, 0
  br i1 %10, label %12, label %11

11:                                               ; preds = %3
  store i32 0, ptr @arg_missing_action, align 4, !tbaa !27
  store ptr @show_object, ptr @fn_show_object, align 8, !tbaa !134
  store i32 0, ptr %4, align 4
  br label %25

12:                                               ; preds = %3
  %13 = load ptr, ptr %6, align 8, !tbaa !24
  %14 = call i32 @strcmp(ptr noundef %13, ptr noundef @.str.116) #13
  %15 = icmp ne i32 %14, 0
  br i1 %15, label %17, label %16

16:                                               ; preds = %12
  store i32 1, ptr @arg_missing_action, align 4, !tbaa !27
  store i32 0, ptr @fetch_if_missing, align 4, !tbaa !27
  store ptr @show_object__ma_allow_any, ptr @fn_show_object, align 8, !tbaa !134
  store i32 0, ptr %4, align 4
  br label %25

17:                                               ; preds = %12
  %18 = load ptr, ptr %6, align 8, !tbaa !24
  %19 = call i32 @strcmp(ptr noundef %18, ptr noundef @.str.145) #13
  %20 = icmp ne i32 %19, 0
  br i1 %20, label %22, label %21

21:                                               ; preds = %17
  store i32 2, ptr @arg_missing_action, align 4, !tbaa !27
  store i32 0, ptr @fetch_if_missing, align 4, !tbaa !27
  store ptr @show_object__ma_allow_promisor, ptr @fn_show_object, align 8, !tbaa !134
  store i32 0, ptr %4, align 4
  br label %25

22:                                               ; preds = %17
  %23 = call ptr @_(ptr noundef @.str.146)
  %24 = load ptr, ptr %6, align 8, !tbaa !24
  call void (ptr, ...) @die(ptr noundef %23, ptr noundef @.str.147, ptr noundef %24) #12
  unreachable

25:                                               ; preds = %21, %16, %11
  %26 = load i32, ptr %4, align 4
  ret i32 %26
}