; Function Attrs: nounwind uwtable
define internal noundef i32 @option_parse_missing_action(ptr readnone captures(none) %0, ptr noundef %1, i32 %2) #0 {
  %4 = tail call i32 @strcmp(ptr noundef nonnull dereferenceable(1) %1, ptr noundef nonnull dereferenceable(6) @.str.144) #28
  %.not = icmp eq i32 %4, 0
  br i1 %.not, label %11, label %5

5:                                                ; preds = %3
  %6 = tail call i32 @strcmp(ptr noundef nonnull dereferenceable(1) %1, ptr noundef nonnull dereferenceable(10) @.str.116) #28
  %.not4 = icmp eq i32 %6, 0
  br i1 %.not4, label %.sink.split, label %7

7:                                                ; preds = %5
  %8 = tail call i32 @strcmp(ptr noundef nonnull dereferenceable(1) %1, ptr noundef nonnull dereferenceable(15) @.str.145) #28
  %.not5 = icmp eq i32 %8, 0
  br i1 %.not5, label %.sink.split, label %9

9:                                                ; preds = %7
  %10 = tail call fastcc ptr @_(ptr noundef nonnull @.str.146)
  tail call void (ptr, ...) @die(ptr noundef %10, ptr noundef nonnull @.str.147, ptr noundef nonnull %1) #26
  unreachable

.sink.split:                                      ; preds = %7, %5
  %show_object__ma_allow_promisor.sink.ph = phi ptr [ @show_object__ma_allow_any, %5 ], [ @show_object__ma_allow_promisor, %7 ]
  store i32 0, ptr @fetch_if_missing, align 4, !tbaa !30
  br label %11

11:                                               ; preds = %.sink.split, %3
  %show_object__ma_allow_promisor.sink = phi ptr [ @show_object, %3 ], [ %show_object__ma_allow_promisor.sink.ph, %.sink.split ]
  store ptr %show_object__ma_allow_promisor.sink, ptr @fn_show_object, align 8, !tbaa !64
  ret i32 0
}